target datalayout = "e-m:e-p270:32:32-p271:32:32-p272:64:64-i64:64-i128:128-f80:128-n8:16:32:64-S128"
target triple = "x86_64-pc-linux-gnu"

%struct.AVChannelLayout = type { i32, i32, %union.anon.1, ptr }
%union.anon.1 = type { i64 }
%struct.AVFilterContext = type { ptr, ptr, ptr, ptr, ptr, i32, ptr, ptr, i32, ptr, ptr, i32, i32, ptr, ptr, ptr, ptr, i32, ptr, i32, i32 }
%struct.AudioFIRSourceContext = type { ptr, ptr, ptr, ptr, i32, i32, i32, i32, i32, i32, i32, ptr, ptr, ptr, ptr, i32, i32, i32, i32, i32, i32, ptr, ptr, i64, ptr, ptr, ptr, ptr }
%struct.AVFrame = type { [8 x ptr], [8 x i32], ptr, i32, i32, i32, i32, i32, %struct.AVRational, i64, i64, %struct.AVRational, i32, ptr, i32, i32, [8 x ptr], ptr, i32, ptr, i32, i32, i32, i32, i32, i32, i32, i64, ptr, i32, ptr, ptr, i64, i64, i64, i64, ptr, %struct.AVChannelLayout, i64 }
%struct.AVRational = type { i32, i32 }

; Function Attrs: inlinehint nounwind uwtable
define internal void @ff_outlink_set_status(ptr noundef %0, i32 noundef %1, i64 noundef %2) #5 {
  %4 = alloca ptr, align 8
  %5 = alloca i32, align 4
  %6 = alloca i64, align 8
  store ptr %0, ptr %4, align 8, !tbaa !35
  store i32 %1, ptr %5, align 4, !tbaa !33
  store i64 %2, ptr %6, align 8, !tbaa !112
  %7 = load ptr, ptr %4, align 8, !tbaa !35
  %8 = load i32, ptr %5, align 4, !tbaa !33
  %9 = load i64, ptr %6, align 8, !tbaa !112
  call void @ff_avfilter_link_set_in_status(ptr noundef %7, i32 noundef %8, i64 noundef %9)
  ret void
}

; Function Attrs: nounwind uwtable
define internal i32 @activate(ptr noundef %0) #1 {
  %2 = alloca i32, align 4
  %3 = alloca ptr, align 8
  %4 = alloca ptr, align 8
  %5 = alloca ptr, align 8
  %6 = alloca ptr, align 8
  %7 = alloca i32, align 4
  %8 = alloca i32, align 4
  store ptr %0, ptr %3, align 8, !tbaa !4
  call void @llvm.lifetime.start.p0(i64 8, ptr %4) #10
  %9 = load ptr, ptr %3, align 8, !tbaa !4
  %10 = getelementptr inbounds nuw %struct.AVFilterContext, ptr %9, i32 0, i32 7
  %11 = load ptr, ptr %10, align 8, !tbaa !34
  %12 = getelementptr inbounds ptr, ptr %11, i64 0
  %13 = load ptr, ptr %12, align 8, !tbaa !35
  store ptr %13, ptr %4, align 8, !tbaa !35
  call void @llvm.lifetime.start.p0(i64 8, ptr %5) #10
  %14 = load ptr, ptr %3, align 8, !tbaa !4
  %15 = getelementptr inbounds nuw %struct.AVFilterContext, ptr %14, i32 0, i32 9
  %16 = load ptr, ptr %15, align 8, !tbaa !9
  store ptr %16, ptr %5, align 8, !tbaa !22
  call void @llvm.lifetime.start.p0(i64 8, ptr %6) #10
  call void @llvm.lifetime.start.p0(i64 4, ptr %7) #10
  %17 = load ptr, ptr %4, align 8, !tbaa !35
  %18 = call i32 @ff_outlink_frame_wanted(ptr noundef %17)
  %19 = icmp ne i32 %18, 0
  br i1 %19, label %21, label %20

20:                                               ; preds = %1
  store i32 -1497649742, ptr %2, align 4
  store i32 1, ptr %8, align 4
  br label %94

21:                                               ; preds = %1
  %22 = load ptr, ptr %5, align 8, !tbaa !22
  %23 = getelementptr inbounds nuw %struct.AudioFIRSourceContext, ptr %22, i32 0, i32 6
  %24 = load i32, ptr %23, align 8, !tbaa !37
  %25 = sext i32 %24 to i64
  %26 = load ptr, ptr %5, align 8, !tbaa !22
  %27 = getelementptr inbounds nuw %struct.AudioFIRSourceContext, ptr %26, i32 0, i32 4
  %28 = load i32, ptr %27, align 8, !tbaa !24
  %29 = sext i32 %28 to i64
  %30 = load ptr, ptr %5, align 8, !tbaa !22
  %31 = getelementptr inbounds nuw %struct.AudioFIRSourceContext, ptr %30, i32 0, i32 23
  %32 = load i64, ptr %31, align 8, !tbaa !38
  %33 = sub nsw i64 %29, %32
  %34 = icmp sgt i64 %25, %33
  br i1 %34, label %35, label %44

35:                                               ; preds = %21
  %36 = load ptr, ptr %5, align 8, !tbaa !22
  %37 = getelementptr inbounds nuw %struct.AudioFIRSourceContext, ptr %36, i32 0, i32 4
  %38 = load i32, ptr %37, align 8, !tbaa !24
  %39 = sext i32 %38 to i64
  %40 = load ptr, ptr %5, align 8, !tbaa !22
  %41 = getelementptr inbounds nuw %struct.AudioFIRSourceContext, ptr %40, i32 0, i32 23
  %42 = load i64, ptr %41, align 8, !tbaa !38
  %43 = sub nsw i64 %39, %42
  br label %49

44:                                               ; preds = %21
  %45 = load ptr, ptr %5, align 8, !tbaa !22
  %46 = getelementptr inbounds nuw %struct.AudioFIRSourceContext, ptr %45, i32 0, i32 6
  %47 = load i32, ptr %46, align 8, !tbaa !37
  %48 = sext i32 %47 to i64
  br label %49

49:                                               ; preds = %44, %35
  %50 = phi i64 [ %43, %35 ], [ %48, %44 ]
  %51 = trunc i64 %50 to i32
  store i32 %51, ptr %7, align 4, !tbaa !33
  %52 = load i32, ptr %7, align 4, !tbaa !33
  %53 = icmp sle i32 %52, 0
  br i1 %53, label %54, label %59

54:                                               ; preds = %49
  %55 = load ptr, ptr %4, align 8, !tbaa !35
  %56 = load ptr, ptr %5, align 8, !tbaa !22
  %57 = getelementptr inbounds nuw %struct.AudioFIRSourceContext, ptr %56, i32 0, i32 23
  %58 = load i64, ptr %57, align 8, !tbaa !38
  call void @ff_outlink_set_status(ptr noundef %55, i32 noundef -541478725, i64 noundef %58)
  store i32 0, ptr %2, align 4
  store i32 1, ptr %8, align 4
  br label %94

59:                                               ; preds = %49
  %60 = load ptr, ptr %4, align 8, !tbaa !35
  %61 = load i32, ptr %7, align 4, !tbaa !33
  %62 = call ptr @ff_get_audio_buffer(ptr noundef %60, i32 noundef %61)
  store ptr %62, ptr %6, align 8, !tbaa !39
  %63 = icmp ne ptr %62, null
  br i1 %63, label %65, label %64

64:                                               ; preds = %59
  store i32 -12, ptr %2, align 4
  store i32 1, ptr %8, align 4
  br label %94

65:                                               ; preds = %59
  %66 = load ptr, ptr %6, align 8, !tbaa !39
  %67 = getelementptr inbounds nuw %struct.AVFrame, ptr %66, i32 0, i32 0
  %68 = getelementptr inbounds [8 x ptr], ptr %67, i64 0, i64 0
  %69 = load ptr, ptr %68, align 8, !tbaa !41
  %70 = load ptr, ptr %5, align 8, !tbaa !22
  %71 = getelementptr inbounds nuw %struct.AudioFIRSourceContext, ptr %70, i32 0, i32 21
  %72 = load ptr, ptr %71, align 8, !tbaa !42
  %73 = load ptr, ptr %5, align 8, !tbaa !22
  %74 = getelementptr inbounds nuw %struct.AudioFIRSourceContext, ptr %73, i32 0, i32 23
  %75 = load i64, ptr %74, align 8, !tbaa !38
  %76 = getelementptr inbounds float, ptr %72, i64 %75
  %77 = load i32, ptr %7, align 4, !tbaa !33
  %78 = sext i32 %77 to i64
  %79 = mul i64 %78, 4
  call void @llvm.memcpy.p0.p0.i64(ptr align 1 %69, ptr align 4 %76, i64 %79, i1 false)
  %80 = load ptr, ptr %5, align 8, !tbaa !22
  %81 = getelementptr inbounds nuw %struct.AudioFIRSourceContext, ptr %80, i32 0, i32 23
  %82 = load i64, ptr %81, align 8, !tbaa !38
  %83 = load ptr, ptr %6, align 8, !tbaa !39
  %84 = getelementptr inbounds nuw %struct.AVFrame, ptr %83, i32 0, i32 9
  store i64 %82, ptr %84, align 8, !tbaa !43
  %85 = load i32, ptr %7, align 4, !tbaa !33
  %86 = sext i32 %85 to i64
  %87 = load ptr, ptr %5, align 8, !tbaa !22
  %88 = getelementptr inbounds nuw %struct.AudioFIRSourceContext, ptr %87, i32 0, i32 23
  %89 = load i64, ptr %88, align 8, !tbaa !38
  %90 = add nsw i64 %89, %86
  store i64 %90, ptr %88, align 8, !tbaa !38
  %91 = load ptr, ptr %4, align 8, !tbaa !35
  %92 = load ptr, ptr %6, align 8, !tbaa !39
  %93 = call i32 @ff_filter_frame(ptr noundef %91, ptr noundef %92)
  store i32 %93, ptr %2, align 4
  store i32 1, ptr %8, align 4
  br label %94

94:                                               ; preds = %65, %64, %54, %20
  call void @llvm.lifetime.end.p0(i64 4, ptr %7) #10
  call void @llvm.lifetime.end.p0(i64 8, ptr %6) #10
  call void @llvm.lifetime.end.p0(i64 8, ptr %5) #10
  call void @llvm.lifetime.end.p0(i64 8, ptr %4) #10
  %95 = load i32, ptr %2, align 4
  ret i32 %95
}